target datalayout = "e-m:e-p270:32:32-p271:32:32-p272:64:64-i64:64-i128:128-f80:128-n8:16:32:64-S128"
target triple = "x86_64-pc-linux-gnu"

%struct.sockaddr = type { i16, [14 x i8] }
%struct.sockaddr_ll = type { i16, i16, i32, i16, i8, i8, [8 x i8] }

; Function Attrs: nounwind sspstrong uwtable
define internal i32 @sockaddr_len(ptr noundef %0) #0 {
  %2 = alloca i32, align 4
  %3 = alloca ptr, align 8
  store ptr %0, ptr %3, align 8, !tbaa !15
  %4 = load ptr, ptr %3, align 8, !tbaa !15
  %5 = icmp eq ptr %4, null
  br i1 %5, label %6, label %7

6:                                                ; preds = %1
  store i32 0, ptr %2, align 4
  br label %23

7:                                                ; preds = %1
  %8 = load ptr, ptr %3, align 8, !tbaa !15
  %9 = getelementptr inbounds nuw %struct.sockaddr, ptr %8, i32 0, i32 0
  %10 = load i16, ptr %9, align 2, !tbaa !46
  %11 = zext i16 %10 to i32
  switch i32 %11, label %22 [
    i32 2, label %12
    i32 10, label %13
    i32 1, label %14
    i32 17, label %15
  ]

12:                                               ; preds = %7
  store i32 16, ptr %2, align 4
  br label %23

13:                                               ; preds = %7
  store i32 28, ptr %2, align 4
  br label %23

14:                                               ; preds = %7
  store i32 110, ptr %2, align 4
  br label %23

15:                                               ; preds = %7
  %16 = load ptr, ptr %3, align 8, !tbaa !15
  %17 = getelementptr inbounds nuw %struct.sockaddr_ll, ptr %16, i32 0, i32 5
  %18 = load i8, ptr %17, align 1, !tbaa !49
  %19 = zext i8 %18 to i64
  %20 = add i64 12, %19
  %21 = trunc i64 %20 to i32
  store i32 %21, ptr %2, align 4
  br label %23

22:                                               ; preds = %7
  store i32 2, ptr %2, align 4
  br label %23

23:                                               ; preds = %22, %15, %14, %13, %12, %6
  %24 = load i32, ptr %2, align 4
  ret i32 %24
}

; Function Attrs: nounwind sspstrong uwtable
define i32 @rsock_sockaddr_len(ptr noundef %0) #0 {
  %2 = alloca ptr, align 8
  store ptr %0, ptr %2, align 8, !tbaa !15
  %3 = load ptr, ptr %2, align 8, !tbaa !15
  %4 = call i32 @sockaddr_len(ptr noundef %3)
  ret i32 %4
}