; Function Attrs: mustprogress nofree norecurse nosync nounwind sspstrong willreturn memory(argmem: read) uwtable
define range(i32 0, 268) i32 @rsock_sockaddr_len(ptr noundef readonly captures(address_is_null) %0) local_unnamed_addr #6 {
  %2 = icmp eq ptr %0, null
  br i1 %2, label %sockaddr_len.exit, label %3

3:                                                ; preds = %1
  %4 = load i16, ptr %0, align 2, !tbaa !35
  switch i16 %4, label %12 [
    i16 2, label %sockaddr_len.exit
    i16 10, label %5
    i16 1, label %6
    i16 17, label %7
  ]

5:                                                ; preds = %3
  br label %sockaddr_len.exit

6:                                                ; preds = %3
  br label %sockaddr_len.exit

7:                                                ; preds = %3
  %8 = getelementptr inbounds nuw i8, ptr %0, i64 11
  %9 = load i8, ptr %8, align 1, !tbaa !38
  %10 = zext i8 %9 to i32
  %11 = add nuw nsw i32 %10, 12
  br label %sockaddr_len.exit

12:                                               ; preds = %3
  br label %sockaddr_len.exit

sockaddr_len.exit:                                ; preds = %1, %3, %5, %6, %7, %12
  %.0.i = phi i32 [ 2, %12 ], [ %11, %7 ], [ 110, %6 ], [ 28, %5 ], [ 0, %1 ], [ 16, %3 ]
  ret i32 %.0.i
}